target datalayout = "e-m:e-p270:32:32-p271:32:32-p272:64:64-i64:64-i128:128-f80:128-n8:16:32:64-S128"
target triple = "x86_64-pc-linux-gnu"

%struct.nghttp2_frame_hd = type { i64, i32, i8, i8, i8 }
%struct.nghttp2_goaway = type { %struct.nghttp2_frame_hd, i32, i32, ptr, i64, i8 }
%struct.nghttp2_bufs = type { ptr, ptr, ptr, i64, i64, i64, i64, i64 }
%struct.nghttp2_buf_chain = type { ptr, %struct.nghttp2_buf }
%struct.nghttp2_buf = type { ptr, ptr, ptr, ptr, ptr }

@.str = private unnamed_addr constant [24 x i8] c"bufs->head == bufs->cur\00", align 1
@.str.1 = private unnamed_addr constant [113 x i8] c"generated/home/dtcxzyw/WorkSpace/Projects/compilers/llvm-opt-benchmark/bench/nghttp2/nghttp2/lib/nghttp2_frame.c\00", align 1
@__PRETTY_FUNCTION__.nghttp2_frame_pack_goaway = private unnamed_addr constant [64 x i8] c"int nghttp2_frame_pack_goaway(nghttp2_bufs *, nghttp2_goaway *)\00", align 1

; Function Attrs: nounwind uwtable
define hidden void @nghttp2_frame_pack_frame_hd(ptr noundef %0, ptr noundef %1) #0 {
  %3 = alloca ptr, align 8
  %4 = alloca ptr, align 8
  store ptr %0, ptr %3, align 8, !tbaa !3
  store ptr %1, ptr %4, align 8, !tbaa !8
  %5 = load ptr, ptr %3, align 8, !tbaa !3
  %6 = getelementptr inbounds i8, ptr %5, i64 0
  %7 = load ptr, ptr %4, align 8, !tbaa !8
  %8 = getelementptr inbounds nuw %struct.nghttp2_frame_hd, ptr %7, i32 0, i32 0
  %9 = load i64, ptr %8, align 8, !tbaa !9
  %10 = shl i64 %9, 8
  %11 = trunc i64 %10 to i32
  call void @nghttp2_put_uint32be(ptr noundef %6, i32 noundef %11)
  %12 = load ptr, ptr %4, align 8, !tbaa !8
  %13 = getelementptr inbounds nuw %struct.nghttp2_frame_hd, ptr %12, i32 0, i32 2
  %14 = load i8, ptr %13, align 4, !tbaa !13
  %15 = load ptr, ptr %3, align 8, !tbaa !3
  %16 = getelementptr inbounds i8, ptr %15, i64 3
  store i8 %14, ptr %16, align 1, !tbaa !14
  %17 = load ptr, ptr %4, align 8, !tbaa !8
  %18 = getelementptr inbounds nuw %struct.nghttp2_frame_hd, ptr %17, i32 0, i32 3
  %19 = load i8, ptr %18, align 1, !tbaa !15
  %20 = load ptr, ptr %3, align 8, !tbaa !3
  %21 = getelementptr inbounds i8, ptr %20, i64 4
  store i8 %19, ptr %21, align 1, !tbaa !14
  %22 = load ptr, ptr %3, align 8, !tbaa !3
  %23 = getelementptr inbounds i8, ptr %22, i64 5
  %24 = load ptr, ptr %4, align 8, !tbaa !8
  %25 = getelementptr inbounds nuw %struct.nghttp2_frame_hd, ptr %24, i32 0, i32 1
  %26 = load i32, ptr %25, align 8, !tbaa !16
  call void @nghttp2_put_uint32be(ptr noundef %23, i32 noundef %26)
  ret void
}

; Function Attrs: nounwind uwtable
define hidden i32 @nghttp2_frame_pack_goaway(ptr noundef %0, ptr noundef %1) #0 {
  %3 = alloca i32, align 4
  %4 = alloca ptr, align 8
  %5 = alloca ptr, align 8
  %6 = alloca i32, align 4
  %7 = alloca ptr, align 8
  %8 = alloca i32, align 4
  store ptr %0, ptr %4, align 8, !tbaa !8
  store ptr %1, ptr %5, align 8, !tbaa !8
  call void @llvm.lifetime.start.p0(i64 4, ptr %6) #7
  call void @llvm.lifetime.start.p0(i64 8, ptr %7) #7
  %9 = load ptr, ptr %4, align 8, !tbaa !8
  %10 = getelementptr inbounds nuw %struct.nghttp2_bufs, ptr %9, i32 0, i32 0
  %11 = load ptr, ptr %10, align 8, !tbaa !70
  %12 = load ptr, ptr %4, align 8, !tbaa !8
  %13 = getelementptr inbounds nuw %struct.nghttp2_bufs, ptr %12, i32 0, i32 1
  %14 = load ptr, ptr %13, align 8, !tbaa !73
  %15 = icmp eq ptr %11, %14
  br i1 %15, label %16, label %17

16:                                               ; preds = %2
  br label %18

17:                                               ; preds = %2
  call void @__assert_fail(ptr noundef @.str, ptr noundef @.str.1, i32 noundef 623, ptr noundef @__PRETTY_FUNCTION__.nghttp2_frame_pack_goaway) #8
  unreachable

18:                                               ; preds = %16
  %19 = load ptr, ptr %4, align 8, !tbaa !8
  %20 = getelementptr inbounds nuw %struct.nghttp2_bufs, ptr %19, i32 0, i32 0
  %21 = load ptr, ptr %20, align 8, !tbaa !70
  %22 = getelementptr inbounds nuw %struct.nghttp2_buf_chain, ptr %21, i32 0, i32 1
  store ptr %22, ptr %7, align 8, !tbaa !8
  %23 = load ptr, ptr %7, align 8, !tbaa !8
  %24 = getelementptr inbounds nuw %struct.nghttp2_buf, ptr %23, i32 0, i32 2
  %25 = load ptr, ptr %24, align 8, !tbaa !74
  %26 = getelementptr inbounds i8, ptr %25, i64 -9
  store ptr %26, ptr %24, align 8, !tbaa !74
  %27 = load ptr, ptr %7, align 8, !tbaa !8
  %28 = getelementptr inbounds nuw %struct.nghttp2_buf, ptr %27, i32 0, i32 2
  %29 = load ptr, ptr %28, align 8, !tbaa !74
  %30 = load ptr, ptr %5, align 8, !tbaa !8
  %31 = getelementptr inbounds nuw %struct.nghttp2_goaway, ptr %30, i32 0, i32 0
  call void @nghttp2_frame_pack_frame_hd(ptr noundef %29, ptr noundef %31)
  %32 = load ptr, ptr %7, align 8, !tbaa !8
  %33 = getelementptr inbounds nuw %struct.nghttp2_buf, ptr %32, i32 0, i32 3
  %34 = load ptr, ptr %33, align 8, !tbaa !76
  %35 = load ptr, ptr %5, align 8, !tbaa !8
  %36 = getelementptr inbounds nuw %struct.nghttp2_goaway, ptr %35, i32 0, i32 1
  %37 = load i32, ptr %36, align 8, !tbaa !38
  call void @nghttp2_put_uint32be(ptr noundef %34, i32 noundef %37)
  %38 = load ptr, ptr %7, align 8, !tbaa !8
  %39 = getelementptr inbounds nuw %struct.nghttp2_buf, ptr %38, i32 0, i32 3
  %40 = load ptr, ptr %39, align 8, !tbaa !76
  %41 = getelementptr inbounds i8, ptr %40, i64 4
  store ptr %41, ptr %39, align 8, !tbaa !76
  %42 = load ptr, ptr %7, align 8, !tbaa !8
  %43 = getelementptr inbounds nuw %struct.nghttp2_buf, ptr %42, i32 0, i32 3
  %44 = load ptr, ptr %43, align 8, !tbaa !76
  %45 = load ptr, ptr %5, align 8, !tbaa !8
  %46 = getelementptr inbounds nuw %struct.nghttp2_goaway, ptr %45, i32 0, i32 2
  %47 = load i32, ptr %46, align 4, !tbaa !40
  call void @nghttp2_put_uint32be(ptr noundef %44, i32 noundef %47)
  %48 = load ptr, ptr %7, align 8, !tbaa !8
  %49 = getelementptr inbounds nuw %struct.nghttp2_buf, ptr %48, i32 0, i32 3
  %50 = load ptr, ptr %49, align 8, !tbaa !76
  %51 = getelementptr inbounds i8, ptr %50, i64 4
  store ptr %51, ptr %49, align 8, !tbaa !76
  %52 = load ptr, ptr %4, align 8, !tbaa !8
  %53 = load ptr, ptr %5, align 8, !tbaa !8
  %54 = getelementptr inbounds nuw %struct.nghttp2_goaway, ptr %53, i32 0, i32 3
  %55 = load ptr, ptr %54, align 8, !tbaa !41
  %56 = load ptr, ptr %5, align 8, !tbaa !8
  %57 = getelementptr inbounds nuw %struct.nghttp2_goaway, ptr %56, i32 0, i32 4
  %58 = load i64, ptr %57, align 8, !tbaa !42
  %59 = call i32 @nghttp2_bufs_add(ptr noundef %52, ptr noundef %55, i64 noundef %58)
  store i32 %59, ptr %6, align 4, !tbaa !19
  %60 = load i32, ptr %6, align 4, !tbaa !19
  %61 = icmp eq i32 %60, -502
  br i1 %61, label %62, label %63

62:                                               ; preds = %18
  store i32 -522, ptr %3, align 4
  store i32 1, ptr %8, align 4
  br label %69

63:                                               ; preds = %18
  %64 = load i32, ptr %6, align 4, !tbaa !19
  %65 = icmp ne i32 %64, 0
  br i1 %65, label %66, label %68

66:                                               ; preds = %63
  %67 = load i32, ptr %6, align 4, !tbaa !19
  store i32 %67, ptr %3, align 4
  store i32 1, ptr %8, align 4
  br label %69

68:                                               ; preds = %63
  store i32 0, ptr %3, align 4
  store i32 1, ptr %8, align 4
  br label %69

69:                                               ; preds = %68, %66, %62
  call void @llvm.lifetime.end.p0(i64 8, ptr %7) #7
  call void @llvm.lifetime.end.p0(i64 4, ptr %6) #7
  %70 = load i32, ptr %3, align 4
  ret i32 %70
}