; Function Attrs: nounwind uwtable
define hidden range(i32 -501, -502) i32 @nghttp2_frame_pack_goaway(ptr noundef %0, ptr noundef readonly captures(none) %1) local_unnamed_addr #0 {
  %3 = load ptr, ptr %0, align 8, !tbaa !65
  %4 = getelementptr inbounds nuw i8, ptr %0, i64 8
  %5 = load ptr, ptr %4, align 8, !tbaa !68
  %6 = icmp eq ptr %3, %5
  br i1 %6, label %8, label %7

7:                                                ; preds = %2
  tail call void @__assert_fail(ptr noundef nonnull @.str, ptr noundef nonnull @.str.1, i32 noundef 623, ptr noundef nonnull @__PRETTY_FUNCTION__.nghttp2_frame_pack_goaway) #19
  unreachable

8:                                                ; preds = %2
  %9 = getelementptr inbounds nuw i8, ptr %3, i64 24
  %10 = load ptr, ptr %9, align 8, !tbaa !69
  %11 = getelementptr inbounds i8, ptr %10, i64 -9
  store ptr %11, ptr %9, align 8, !tbaa !69
  %12 = load i64, ptr %1, align 8, !tbaa !3
  %.tr.i = trunc i64 %12 to i32
  %13 = shl i32 %.tr.i, 8
  tail call void @nghttp2_put_uint32be(ptr noundef nonnull %11, i32 noundef %13) #18
  %14 = getelementptr inbounds nuw i8, ptr %1, i64 12
  %15 = load i8, ptr %14, align 4, !tbaa !9
  %16 = getelementptr inbounds i8, ptr %10, i64 -6
  store i8 %15, ptr %16, align 1, !tbaa !10
  %17 = getelementptr inbounds nuw i8, ptr %1, i64 13
  %18 = load i8, ptr %17, align 1, !tbaa !11
  %19 = getelementptr inbounds i8, ptr %10, i64 -5
  store i8 %18, ptr %19, align 1, !tbaa !10
  %20 = getelementptr inbounds i8, ptr %10, i64 -4
  %21 = getelementptr inbounds nuw i8, ptr %1, i64 8
  %22 = load i32, ptr %21, align 8, !tbaa !12
  tail call void @nghttp2_put_uint32be(ptr noundef nonnull %20, i32 noundef %22) #18
  %23 = getelementptr inbounds nuw i8, ptr %3, i64 32
  %24 = load ptr, ptr %23, align 8, !tbaa !71
  %25 = getelementptr inbounds nuw i8, ptr %1, i64 16
  %26 = load i32, ptr %25, align 8, !tbaa !34
  tail call void @nghttp2_put_uint32be(ptr noundef %24, i32 noundef %26) #18
  %27 = load ptr, ptr %23, align 8, !tbaa !71
  %28 = getelementptr inbounds nuw i8, ptr %27, i64 4
  store ptr %28, ptr %23, align 8, !tbaa !71
  %29 = getelementptr inbounds nuw i8, ptr %1, i64 20
  %30 = load i32, ptr %29, align 4, !tbaa !37
  tail call void @nghttp2_put_uint32be(ptr noundef nonnull %28, i32 noundef %30) #18
  %31 = load ptr, ptr %23, align 8, !tbaa !71
  %32 = getelementptr inbounds nuw i8, ptr %31, i64 4
  store ptr %32, ptr %23, align 8, !tbaa !71
  %33 = getelementptr inbounds nuw i8, ptr %1, i64 24
  %34 = load ptr, ptr %33, align 8, !tbaa !38
  %35 = getelementptr inbounds nuw i8, ptr %1, i64 32
  %36 = load i64, ptr %35, align 8, !tbaa !39
  %37 = tail call i32 @nghttp2_bufs_add(ptr noundef nonnull %0, ptr noundef %34, i64 noundef %36) #18
  %cond = icmp eq i32 %37, -502
  %spec.select = select i1 %cond, i32 -522, i32 %37
  ret i32 %spec.select
}